
makethreads.coff:     format de fichier ecoff-littlemips

Déassemblage de la section .text:

00000000 <_ftext>:
   0:	ffffffff 	0xffffffff
   4:	ffffffff 	0xffffffff
	...

00000080 <__start>:
  80:	0c000077 	jal	1dc <main>
  84:	00000000 	nop
  88:	0c00002a 	jal	a8 <Exit>
  8c:	00402021 	move	r4,r2
  90:	ffffffff 	0xffffffff
  94:	ffffffff 	0xffffffff

00000098 <Halt>:
  98:	24020000 	li	r2,0
  9c:	0000000c 	syscall
  r4:	03e00008 	jr	r31
  a4:	00000000 	nop

000000a8 <Exit>:
  a8:	24020001 	li	r2,1
  ac:	0000000c 	syscall
  b0:	03e00008 	jr	r31
  b4:	00000000 	nop

000000b8 <Exec>:
  b8:	24020002 	li	r2,2
  bc:	0000000c 	syscall
  c0:	03e00008 	jr	r31
  c4:	00000000 	nop

000000c8 <Join>:
  c8:	24020003 	li	r2,3
  cc:	0000000c 	syscall
  d0:	03e00008 	jr	r31
  d4:	00000000 	nop

000000d8 <Create>:
  d8:	24020004 	li	r2,4
  dc:	0000000c 	syscall
  e0:	03e00008 	jr	r31
  e4:	00000000 	nop

000000e8 <Open>:
  e8:	24020005 	li	r2,5
  ec:	0000000c 	syscall
  f0:	03e00008 	jr	r31
  f4:	00000000 	nop

000000f8 <Read>:
  f8:	24020006 	li	r2,6
  fc:	0000000c 	syscall
 100:	03e00008 	jr	r31
 104:	00000000 	nop

00000108 <Write>:
 108:	24020007 	li	r2,7
 10c:	0000000c 	syscall
 110:	03e00008 	jr	r31
 114:	00000000 	nop

00000118 <Close>:
 118:	24020008 	li	r2,8
 11c:	0000000c 	syscall
 120:	03e00008 	jr	r31
 124:	00000000 	nop

00000128 <Fork>:
 128:	24020009 	li	r2,9
 12c:	0000000c 	syscall
 130:	03e00008 	jr	r31
 134:	00000000 	nop

00000138 <Yield>:
 138:	2402000a 	li	r2,10
 13c:	0000000c 	syscall
 140:	03e00008 	jr	r31
 144:	00000000 	nop

00000148 <PutChar>:
 148:	2402000b 	li	r2,11
 14c:	0000000c 	syscall
 150:	03e00008 	jr	r31
 154:	00000000 	nop

00000158 <PutString>:
 158:	2402000c 	li	r2,12
 15c:	0000000c 	syscall
 160:	03e00008 	jr	r31
 164:	00000000 	nop

00000168 <GetChar>:
 168:	2402000d 	li	r2,13
 16c:	0000000c 	syscall
 170:	03e00008 	jr	r31
 174:	00000000 	nop

00000178 <GetString>:
 178:	2402000e 	li	r2,14
 17c:	0000000c 	syscall
 180:	03e00008 	jr	r31
 184:	00000000 	nop

00000188 <ThreadCreate>:
 188:	2402000f 	li	r2,15
 18c:	0000000c 	syscall
 190:	03e00008 	jr	r31
 194:	00000000 	nop

00000198 <ThreadExit>:
 198:	24020010 	li	r2,16
 19c:	0000000c 	syscall
 1a0:	03e00008 	jr	r31
 1a4:	00000000 	nop

000001a8 <__main>:
 1a8:	03e00008 	jr	r31
 1ac:	00000000 	nop

000001b0 <f>:
 1b0:	27bdffe8 	addiu	r29,r29,-24
 1b4:	00042600 	sll	r4,r4,0x18
 1b8:	afbf0010 	sw	r31,16(r29)
 1bc:	0c000052 	jal	148 <PutChar>
 1c0:	00042603 	sra	r4,r4,0x18
 1c4:	0c000066 	jal	198 <ThreadExit>
 1c8:	00000000 	nop
 1cc:	8fbf0010 	lw	r31,16(r29)
 1d0:	00000000 	nop
 1d4:	03e00008 	jr	r31
 1d8:	27bd0018 	addiu	r29,r29,24

000001dc <main>:
 1dc:	27bdffe8 	addiu	r29,r29,-24
 1e0:	afbf0010 	sw	r31,16(r29)
 1e4:	0c00006a 	jal	1a8 <__main>
 1e8:	00000000 	nop
 1ec:	3c040000 	lui	r4,0x0
 1f0:	248401b0 	addiu	r4,r4,432
 1f4:	0c000062 	jal	188 <ThreadCreate>
 1f8:	24050078 	li	r5,120
 1fc:	0800007f 	j	1fc <main+0x20>
 200:	00000000 	nop
	...
